; Function Attrs: mustprogress nounwind uwtable
define dso_local void @_ZN4node9WriteWrap6OnDoneEi(ptr noundef nonnull align 8 dereferenceable(24) %this, i32 noundef %status) unnamed_addr #3 align 2 {
entry:
  %stream_.i = getelementptr inbounds i8, ptr %this, i64 8
  %0 = load ptr, ptr %stream_.i, align 8
  %listener_.i = getelementptr inbounds i8, ptr %0, i64 8
  %1 = load ptr, ptr %listener_.i, align 8
  %vtable.i = load ptr, ptr %1, align 8
  %vfn.i = getelementptr inbounds i8, ptr %vtable.i, i64 32
  %2 = load ptr, ptr %vfn.i, align 8
  tail call void %2(ptr noundef nonnull align 8 dereferenceable(24) %1, ptr noundef nonnull %this, i32 noundef %status) #20
  tail call void @_ZN4node9StreamReq7DisposeEv(ptr noundef nonnull align 8 dereferenceable(16) %this)
  ret void
}